; Function Attrs: mustprogress uwtable
define hidden noundef zeroext i1 @_ZN3sls7context8is_fixedEP4exprR7obj_refIS1_11ast_managerE(ptr noundef nonnull readonly align 8 captures(none) dereferenceable(321) %0, ptr noundef %1, ptr noundef nonnull align 8 dereferenceable(16) %2) local_unnamed_addr #4 align 2 {
  %4 = load ptr, ptr %0, align 8, !tbaa !10
  %5 = tail call noundef zeroext i1 @_ZNK11ast_manager8is_valueEP4expr(ptr noundef nonnull align 8 dereferenceable(976) %4, ptr noundef %1)
  br i1 %5, label %6, label %20

6:                                                ; preds = %3
  %.not.i = icmp eq ptr %1, null
  br i1 %.not.i, label %10, label %_ZN11ast_manager7inc_refEP3ast.exit.i

_ZN11ast_manager7inc_refEP3ast.exit.i:            ; preds = %6
  %7 = getelementptr inbounds nuw i8, ptr %1, i64 8
  %8 = load i32, ptr %7, align 4, !tbaa !64
  %9 = add i32 %8, 1
  store i32 %9, ptr %7, align 4, !tbaa !64
  br label %10

10:                                               ; preds = %_ZN11ast_manager7inc_refEP3ast.exit.i, %6
  %11 = load ptr, ptr %2, align 8, !tbaa !180
  %.not.i4.i = icmp eq ptr %11, null
  br i1 %.not.i4.i, label %_ZN7obj_refI4expr11ast_managerEaSEPS0_.exit, label %12

12:                                               ; preds = %10
  %13 = getelementptr inbounds nuw i8, ptr %2, i64 8
  %14 = load ptr, ptr %13, align 8, !tbaa !182
  %15 = getelementptr inbounds nuw i8, ptr %11, i64 8
  %16 = load i32, ptr %15, align 4, !tbaa !64
  %17 = add i32 %16, -1
  store i32 %17, ptr %15, align 4, !tbaa !64
  %18 = icmp eq i32 %17, 0
  br i1 %18, label %19, label %_ZN7obj_refI4expr11ast_managerEaSEPS0_.exit

19:                                               ; preds = %12
  tail call void @_ZN11ast_manager11delete_nodeEP3ast(ptr noundef nonnull align 8 dereferenceable(976) %14, ptr noundef nonnull %11)
  br label %_ZN7obj_refI4expr11ast_managerEaSEPS0_.exit

_ZN7obj_refI4expr11ast_managerEaSEPS0_.exit:      ; preds = %10, %12, %19
  store ptr %1, ptr %2, align 8, !tbaa !180
  br label %"_Z6any_ofI17scoped_ptr_vectorIN3sls6pluginEEZNS1_7context8is_fixedEP4exprR7obj_refIS5_11ast_managerEE3$_0EbRKT_RKT0_.exit"

20:                                               ; preds = %3
  %21 = getelementptr inbounds nuw i8, ptr %0, i64 16
  %.val = load ptr, ptr %21, align 8, !tbaa !49
  %22 = icmp eq ptr %.val, null
  br i1 %22, label %"_Z6any_ofI17scoped_ptr_vectorIN3sls6pluginEEZNS1_7context8is_fixedEP4exprR7obj_refIS5_11ast_managerEE3$_0EbRKT_RKT0_.exit", label %_ZNK17scoped_ptr_vectorIN3sls6pluginEE3endEv.exit.i

_ZNK17scoped_ptr_vectorIN3sls6pluginEE3endEv.exit.i: ; preds = %20
  %23 = getelementptr inbounds i8, ptr %.val, i64 -4
  %24 = load i32, ptr %23, align 4, !tbaa !58
  %25 = zext i32 %24 to i64
  %26 = getelementptr inbounds nuw ptr, ptr %.val, i64 %25
  %.not3.not.i = icmp eq i32 %24, 0
  br i1 %.not3.not.i, label %"_Z6any_ofI17scoped_ptr_vectorIN3sls6pluginEEZNS1_7context8is_fixedEP4exprR7obj_refIS5_11ast_managerEE3$_0EbRKT_RKT0_.exit", label %.lr.ph.i

.lr.ph.i:                                         ; preds = %_ZNK17scoped_ptr_vectorIN3sls6pluginEE3endEv.exit.i, %"_ZZN3sls7context8is_fixedEP4exprR7obj_refIS1_11ast_managerEENK3$_0clIPNS_6pluginEEEDaT_.exit.thread.i"
  %.0134.i = phi ptr [ %32, %"_ZZN3sls7context8is_fixedEP4exprR7obj_refIS1_11ast_managerEENK3$_0clIPNS_6pluginEEEDaT_.exit.thread.i" ], [ %.val, %_ZNK17scoped_ptr_vectorIN3sls6pluginEE3endEv.exit.i ]
  %27 = load ptr, ptr %.0134.i, align 8, !tbaa !70
  %.not.i.i = icmp eq ptr %27, null
  br i1 %.not.i.i, label %"_ZZN3sls7context8is_fixedEP4exprR7obj_refIS1_11ast_managerEENK3$_0clIPNS_6pluginEEEDaT_.exit.thread.i", label %"_ZZN3sls7context8is_fixedEP4exprR7obj_refIS1_11ast_managerEENK3$_0clIPNS_6pluginEEEDaT_.exit.i"

"_ZZN3sls7context8is_fixedEP4exprR7obj_refIS1_11ast_managerEENK3$_0clIPNS_6pluginEEEDaT_.exit.i": ; preds = %.lr.ph.i
  %28 = load ptr, ptr %27, align 8, !tbaa !3
  %29 = getelementptr inbounds nuw i8, ptr %28, i64 40
  %30 = load ptr, ptr %29, align 8
  %31 = tail call noundef zeroext i1 %30(ptr noundef nonnull align 8 dereferenceable(28) %27, ptr noundef %1, ptr noundef nonnull align 8 dereferenceable(16) %2)
  br i1 %31, label %"_Z6any_ofI17scoped_ptr_vectorIN3sls6pluginEEZNS1_7context8is_fixedEP4exprR7obj_refIS5_11ast_managerEE3$_0EbRKT_RKT0_.exit", label %"_ZZN3sls7context8is_fixedEP4exprR7obj_refIS1_11ast_managerEENK3$_0clIPNS_6pluginEEEDaT_.exit.thread.i"

"_ZZN3sls7context8is_fixedEP4exprR7obj_refIS1_11ast_managerEENK3$_0clIPNS_6pluginEEEDaT_.exit.thread.i": ; preds = %"_ZZN3sls7context8is_fixedEP4exprR7obj_refIS1_11ast_managerEENK3$_0clIPNS_6pluginEEEDaT_.exit.i", %.lr.ph.i
  %32 = getelementptr inbounds nuw i8, ptr %.0134.i, i64 8
  %.not.not.i = icmp eq ptr %32, %26
  br i1 %.not.not.i, label %"_Z6any_ofI17scoped_ptr_vectorIN3sls6pluginEEZNS1_7context8is_fixedEP4exprR7obj_refIS5_11ast_managerEE3$_0EbRKT_RKT0_.exit", label %.lr.ph.i

"_Z6any_ofI17scoped_ptr_vectorIN3sls6pluginEEZNS1_7context8is_fixedEP4exprR7obj_refIS5_11ast_managerEE3$_0EbRKT_RKT0_.exit": ; preds = %"_ZZN3sls7context8is_fixedEP4exprR7obj_refIS1_11ast_managerEENK3$_0clIPNS_6pluginEEEDaT_.exit.thread.i", %"_ZZN3sls7context8is_fixedEP4exprR7obj_refIS1_11ast_managerEENK3$_0clIPNS_6pluginEEEDaT_.exit.i", %_ZNK17scoped_ptr_vectorIN3sls6pluginEE3endEv.exit.i, %20, %_ZN7obj_refI4expr11ast_managerEaSEPS0_.exit
  %.0 = phi i1 [ true, %_ZN7obj_refI4expr11ast_managerEaSEPS0_.exit ], [ false, %_ZNK17scoped_ptr_vectorIN3sls6pluginEE3endEv.exit.i ], [ false, %20 ], [ true, %"_ZZN3sls7context8is_fixedEP4exprR7obj_refIS1_11ast_managerEENK3$_0clIPNS_6pluginEEEDaT_.exit.i" ], [ false, %"_ZZN3sls7context8is_fixedEP4exprR7obj_refIS1_11ast_managerEENK3$_0clIPNS_6pluginEEEDaT_.exit.thread.i" ]
  ret i1 %.0
}